	.text
	.file	"io.rcp"
	.file	0 "/home/vasko/programming/ReComp/std" "io.rcp"
	.globl	io.print                        # -- Begin function io.print
	.p2align	4, 0x90
	.type	io.print,@function
io.print:                               # @io.print
.Lfunc_begin0:
	.loc	0 0 0                           # io.rcp:0:0
	.cfi_startproc
# %bb.0:                                # %block_0
	subq	$72, %rsp
	.cfi_def_cfa_offset 80
.Ltmp0:
	.loc	0 9 0 prologue_end              # io.rcp:9:0
	movq	(%rdi), %rax
	movq	8(%rdi), %rcx
	movq	%rcx, 64(%rsp)
	movq	%rax, 56(%rsp)
	movq	(%rsi), %rax
	movq	8(%rsi), %rcx
	movq	%rax, 40(%rsp)
	movq	%rcx, 48(%rsp)
	leaq	24(%rsp), %rdi
	leaq	56(%rsp), %rsi
	leaq	40(%rsp), %rdx
	.loc	0 10 0                          # io.rcp:10:0
	callq	.Lio.internal_print
	movq	24(%rsp), %rsi
	movq	32(%rsp), %rdi
	movq	%rsi, 8(%rsp)
	movq	%rdi, 16(%rsp)
	.loc	0 11 0                          # io.rcp:11:0
	shll	$2, %esi
                                        # kill: def $esi killed $esi killed $rsi
	callq	os.print@PLT
	leaq	8(%rsp), %rdi
	.loc	0 12 0                          # io.rcp:12:0
	callq	"array.free:(*[]u32)->void"@PLT
	.loc	0 13 0 epilogue_begin           # io.rcp:13:0
	addq	$72, %rsp
	.cfi_def_cfa_offset 8
	retq
.Ltmp1:
.Lfunc_end0:
	.size	io.print, .Lfunc_end0-io.print
	.cfi_endproc
                                        # -- End function
	.globl	io.println                      # -- Begin function io.println
	.p2align	4, 0x90
	.type	io.println,@function
io.println:                             # @io.println
.Lfunc_begin1:
	.loc	0 0 0                           # io.rcp:0:0
	.cfi_startproc
# %bb.0:                                # %block_0
	pushq	%rbx
	.cfi_def_cfa_offset 16
	subq	$64, %rsp
	.cfi_def_cfa_offset 80
	.cfi_offset %rbx, -16
	.loc	0 15 0 prologue_end             # io.rcp:15:0
	movq	(%rdi), %rax
	movq	8(%rdi), %rcx
	movq	%rcx, 56(%rsp)
	movq	%rax, 48(%rsp)
	movq	(%rsi), %rax
	movq	8(%rsi), %rcx
	movq	%rax, 32(%rsp)
	movq	%rcx, 40(%rsp)
	leaq	16(%rsp), %rdi
	leaq	48(%rsp), %rsi
	leaq	32(%rsp), %rdx
	.loc	0 16 0                          # io.rcp:16:0
	callq	.Lio.internal_print
	movq	16(%rsp), %rax
	movq	24(%rsp), %rcx
	movq	%rcx, 8(%rsp)
	movq	%rax, (%rsp)
	movq	%rsp, %rbx
	.loc	0 17 0                          # io.rcp:17:0
	movq	%rbx, %rdi
	movl	$10, %esi
	callq	str.builder_append_u32@PLT
	.loc	0 18 0                          # io.rcp:18:0
	movq	8(%rsp), %rdi
	movl	(%rsp), %esi
	shll	$2, %esi
	callq	os.print@PLT
	.loc	0 19 0                          # io.rcp:19:0
	movq	%rbx, %rdi
	callq	"array.free:(*[]u32)->void"@PLT
	.loc	0 20 0 epilogue_begin           # io.rcp:20:0
	addq	$64, %rsp
	.cfi_def_cfa_offset 16
	popq	%rbx
	.cfi_def_cfa_offset 8
	retq
.Ltmp2:
.Lfunc_end1:
	.size	io.println, .Lfunc_end1-io.println
	.cfi_endproc
                                        # -- End function
	.globl	io.sprint                       # -- Begin function io.sprint
	.p2align	4, 0x90
	.type	io.sprint,@function
io.sprint:                              # @io.sprint
.Lfunc_begin2:
	.loc	0 0 0                           # io.rcp:0:0
	.cfi_startproc
# %bb.0:                                # %block_0
	pushq	%rbx
	.cfi_def_cfa_offset 16
	subq	$96, %rsp
	.cfi_def_cfa_offset 112
	.cfi_offset %rbx, -16
	movq	%rdi, %rbx
.Ltmp3:
	.loc	0 22 0 prologue_end             # io.rcp:22:0
	movq	(%rsi), %rax
	movq	8(%rsi), %rcx
	movq	%rcx, 72(%rsp)
	movq	%rax, 64(%rsp)
	movq	(%rdx), %rax
	movq	8(%rdx), %rcx
	movq	%rax, 48(%rsp)
	movq	%rcx, 56(%rsp)
	leaq	32(%rsp), %rdi
	leaq	64(%rsp), %rsi
	leaq	48(%rsp), %rdx
	.loc	0 23 0                          # io.rcp:23:0
	callq	.Lio.internal_print
	movq	32(%rsp), %rax
	movq	40(%rsp), %rcx
	movq	%rcx, 24(%rsp)
	movq	%rax, 16(%rsp)
	.loc	0 24 0                          # io.rcp:24:0
	movq	mem.temp_alloc@GOTPCREL(%rip), %rdx
	movq	%rsp, %rdi
	leaq	16(%rsp), %rsi
	callq	str.from_builder@PLT
	movq	(%rsp), %rax
	movq	8(%rsp), %rcx
	movq	%rcx, 88(%rsp)
	movq	%rax, 80(%rsp)
	.loc	0 25 0                          # io.rcp:25:0
	movq	%rcx, 8(%rbx)
	movq	%rax, (%rbx)
	.loc	0 25 0 epilogue_begin is_stmt 0 # io.rcp:25:0
	addq	$96, %rsp
	.cfi_def_cfa_offset 16
	popq	%rbx
	.cfi_def_cfa_offset 8
	retq
.Ltmp4:
.Lfunc_end2:
	.size	io.sprint, .Lfunc_end2-io.sprint
	.cfi_endproc
                                        # -- End function
	.globl	io.vsprint                      # -- Begin function io.vsprint
	.p2align	4, 0x90
	.type	io.vsprint,@function
io.vsprint:                             # @io.vsprint
.Lfunc_begin3:
	.loc	0 0 0 is_stmt 1                 # io.rcp:0:0
	.cfi_startproc
# %bb.0:                                # %block_0
	pushq	%rbx
	.cfi_def_cfa_offset 16
	subq	$96, %rsp
	.cfi_def_cfa_offset 112
	.cfi_offset %rbx, -16
	movq	%rdi, %rbx
.Ltmp5:
	.loc	0 28 0 prologue_end             # io.rcp:28:0
	movq	(%rsi), %rax
	movq	8(%rsi), %rcx
	movq	%rcx, 72(%rsp)
	movq	%rax, 64(%rsp)
	movq	(%rdx), %rax
	movq	8(%rdx), %rcx
	movq	%rax, 48(%rsp)
	movq	%rcx, 56(%rsp)
	leaq	32(%rsp), %rdi
	leaq	64(%rsp), %rsi
	leaq	48(%rsp), %rdx
	.loc	0 29 0                          # io.rcp:29:0
	callq	.Lio.internal_print
	movq	32(%rsp), %rax
	movq	40(%rsp), %rcx
	movq	%rcx, 24(%rsp)
	movq	%rax, 16(%rsp)
	.loc	0 30 0                          # io.rcp:30:0
	movq	mem.temp_alloc@GOTPCREL(%rip), %rdx
	movq	%rsp, %rdi
	leaq	16(%rsp), %rsi
	callq	str.from_builder@PLT
	movq	(%rsp), %rax
	movq	8(%rsp), %rcx
	movq	%rcx, 88(%rsp)
	movq	%rax, 80(%rsp)
	.loc	0 31 0                          # io.rcp:31:0
	movq	%rcx, 8(%rbx)
	movq	%rax, (%rbx)
	.loc	0 31 0 epilogue_begin is_stmt 0 # io.rcp:31:0
	addq	$96, %rsp
	.cfi_def_cfa_offset 16
	popq	%rbx
	.cfi_def_cfa_offset 8
	retq
.Ltmp6:
.Lfunc_end3:
	.size	io.vsprint, .Lfunc_end3-io.vsprint
	.cfi_endproc
                                        # -- End function
	.globl	io.read_entire_file             # -- Begin function io.read_entire_file
	.p2align	4, 0x90
	.type	io.read_entire_file,@function
io.read_entire_file:                    # @io.read_entire_file
.Lfunc_begin4:
	.loc	0 0 0 is_stmt 1                 # io.rcp:0:0
	.cfi_startproc
# %bb.0:                                # %block_0
	pushq	%rbx
	.cfi_def_cfa_offset 16
	subq	$160, %rsp
	.cfi_def_cfa_offset 176
	.cfi_offset %rbx, -16
	movq	%rdi, %rbx
.Ltmp7:
	.loc	0 34 0 prologue_end             # io.rcp:34:0
	movq	(%rsi), %rax
	movq	8(%rsi), %rcx
	movq	%rcx, 128(%rsp)
	movq	%rax, 120(%rsp)
	movq	%rdx, 112(%rsp)
	leaq	120(%rsp), %rdi
	.loc	0 35 0                          # io.rcp:35:0
	callq	os.open@PLT
	movq	%rax, 104(%rsp)
	.loc	0 36 0                          # io.rcp:36:0
	testq	%rax, %rax
	je	.LBB4_1
# %bb.2:                                # %block_2
	.loc	0 39 0                          # io.rcp:39:0
	movq	104(%rsp), %rdi
	movq	%rdi, (%rsp)
	.loc	0 42 0                          # io.rcp:42:0
	callq	os.get_file_size@PLT
	movq	%rax, 96(%rsp)
	.loc	0 43 0                          # io.rcp:43:0
	movq	112(%rsp), %rsi
	leaq	1(%rax), %rdi
	callq	*(%rsi)
	movq	%rax, 88(%rsp)
	.loc	0 44 0                          # io.rcp:44:0
	testq	%rax, %rax
	je	.LBB4_3
# %bb.6:                                # %block_5
	.loc	0 48 0                          # io.rcp:48:0
	movq	88(%rsp), %rsi
	movq	%rsi, 8(%rsp)
	.loc	0 49 0                          # io.rcp:49:0
	movq	(%rsp), %rdi
	movq	96(%rsp), %rdx
	callq	os.read@PLT
	movq	%rax, 56(%rsp)
	.loc	0 50 0                          # io.rcp:50:0
	movq	8(%rsp), %rcx
	movb	$0, (%rcx,%rax)
	.loc	0 51 0                          # io.rcp:51:0
	xorps	%xmm0, %xmm0
	movaps	%xmm0, 16(%rsp)
	movq	56(%rsp), %rax
	movq	%rax, 16(%rsp)
	movq	8(%rsp), %rax
	movq	%rax, 24(%rsp)
	movq	16(%rsp), %rax
	movq	%rax, 32(%rsp)
	movq	24(%rsp), %rax
	movq	%rax, 40(%rsp)
	movb	$1, 48(%rsp)
	.loc	0 40 0                          # io.rcp:40:0
	movq	(%rsp), %rdi
	callq	os.close@PLT
	movq	48(%rsp), %rax
	movq	%rax, 16(%rbx)
	movq	32(%rsp), %rax
	movq	40(%rsp), %rcx
	jmp	.LBB4_4
.LBB4_1:                                # %block_1
	.loc	0 37 0                          # io.rcp:37:0
	movq	__unnamed_1@GOTPCREL(%rip), %rax
	movq	(%rax), %rcx
	movq	8(%rax), %rax
	movq	%rax, 144(%rsp)
	movq	%rcx, 136(%rsp)
	movb	$0, 152(%rsp)
	movq	152(%rsp), %rdx
	movq	%rdx, 16(%rbx)
	movq	%rax, 8(%rbx)
	movq	%rcx, (%rbx)
	jmp	.LBB4_5
.LBB4_3:                                # %block_4
	.loc	0 45 0                          # io.rcp:45:0
	movq	__unnamed_2@GOTPCREL(%rip), %rax
	movq	(%rax), %rcx
	movq	8(%rax), %rax
	movq	%rax, 72(%rsp)
	movq	%rcx, 64(%rsp)
	movb	$0, 80(%rsp)
	.loc	0 40 0                          # io.rcp:40:0
	movq	(%rsp), %rdi
	callq	os.close@PLT
	movq	80(%rsp), %rax
	movq	%rax, 16(%rbx)
	movq	64(%rsp), %rax
	movq	72(%rsp), %rcx
.LBB4_4:                                # %block_4
	movq	%rcx, 8(%rbx)
	movq	%rax, (%rbx)
.LBB4_5:                                # %block_4
	.loc	0 0 0 epilogue_begin is_stmt 0  # io.rcp:0:0
	addq	$160, %rsp
	.cfi_def_cfa_offset 16
	popq	%rbx
	.cfi_def_cfa_offset 8
	retq
.Ltmp8:
.Lfunc_end4:
	.size	io.read_entire_file, .Lfunc_end4-io.read_entire_file
	.cfi_endproc
                                        # -- End function
	.globl	io.readln                       # -- Begin function io.readln
	.p2align	4, 0x90
	.type	io.readln,@function
io.readln:                              # @io.readln
.Lfunc_begin5:
	.loc	0 0 0 is_stmt 1                 # io.rcp:0:0
	.cfi_startproc
# %bb.0:                                # %block_0
	pushq	%rbx
	.cfi_def_cfa_offset 16
	subq	$80, %rsp
	.cfi_def_cfa_offset 96
	.cfi_offset %rbx, -16
	movq	%rdi, %rbx
.Ltmp9:
	.loc	0 54 0 prologue_end             # io.rcp:54:0
	movq	%rsi, 72(%rsp)
	.loc	0 55 0                          # io.rcp:55:0
	movq	$1024, 24(%rsp)                 # imm = 0x400
	.loc	0 56 0                          # io.rcp:56:0
	movl	$1024, %edi                     # imm = 0x400
	callq	*(%rsi)
	movq	%rax, 16(%rsp)
	.loc	0 57 0                          # io.rcp:57:0
	testq	%rax, %rax
	je	.LBB5_1
# %bb.2:                                # %block_2
	.loc	0 62 0                          # io.rcp:62:0
	movq	16(%rsp), %rdi
	movq	%rdi, 8(%rsp)
	.loc	0 63 0                          # io.rcp:63:0
	movl	24(%rsp), %esi
	callq	os.read_stdin_line@PLT
	movl	%eax, 4(%rsp)
	.loc	0 64 0                          # io.rcp:64:0
	testl	%eax, %eax
	je	.LBB5_3
# %bb.6:                                # %block_5
	.loc	0 68 0                          # io.rcp:68:0
	xorps	%xmm0, %xmm0
	movaps	%xmm0, 32(%rsp)
	.loc	0 69 0                          # io.rcp:69:0
	movq	8(%rsp), %rax
	movq	%rax, 40(%rsp)
	.loc	0 70 0                          # io.rcp:70:0
	movl	4(%rsp), %ecx
	movq	%rcx, 32(%rsp)
	jmp	.LBB5_5
.LBB5_1:                                # %block_1
	.loc	0 58 0                          # io.rcp:58:0
	movq	$0, 56(%rsp)
	movq	%rsp, %rax
	movq	%rax, 64(%rsp)
	movq	__unnamed_3@GOTPCREL(%rip), %rdi
	leaq	56(%rsp), %rsi
	callq	io.println@PLT
	.loc	0 59 0                          # io.rcp:59:0
	movq	__unnamed_4@GOTPCREL(%rip), %rax
	jmp	.LBB5_4
.LBB5_3:                                # %block_4
	.loc	0 65 0                          # io.rcp:65:0
	movq	__unnamed_5@GOTPCREL(%rip), %rax
.LBB5_4:                                # %block_4
	.loc	0 0 0 is_stmt 0                 # io.rcp:0:0
	movq	(%rax), %rcx
	movq	8(%rax), %rax
.LBB5_5:                                # %block_4
	movq	%rax, 8(%rbx)
	movq	%rcx, (%rbx)
	addq	$80, %rsp
	.cfi_def_cfa_offset 16
	popq	%rbx
	.cfi_def_cfa_offset 8
	retq
.Ltmp10:
.Lfunc_end5:
	.size	io.readln, .Lfunc_end5-io.readln
	.cfi_endproc
                                        # -- End function
	.globl	io.read                         # -- Begin function io.read
	.p2align	4, 0x90
	.type	io.read,@function
io.read:                                # @io.read
.Lfunc_begin6:
	.loc	0 0 0 is_stmt 1                 # io.rcp:0:0
	.cfi_startproc
# %bb.0:                                # %block_0
	pushq	%rbx
	.cfi_def_cfa_offset 16
	subq	$64, %rsp
	.cfi_def_cfa_offset 80
	.cfi_offset %rbx, -16
	movq	%rdi, %rbx
.Ltmp11:
	.loc	0 75 0 prologue_end             # io.rcp:75:0
	movq	%rsi, 32(%rsp)
	movq	%rdx, 24(%rsp)
	.loc	0 76 0                          # io.rcp:76:0
	callq	os.stdin@PLT
	movq	%rax, 40(%rsp)
	.loc	0 77 0                          # io.rcp:77:0
	movq	24(%rsp), %rsi
	movq	32(%rsp), %rdi
	callq	*(%rsi)
	movq	%rax, 16(%rsp)
	.loc	0 78 0                          # io.rcp:78:0
	movq	40(%rsp), %rdi
	movq	32(%rsp), %rdx
	movq	%rax, %rsi
	callq	os.read@PLT
	movq	%rax, 8(%rsp)
	.loc	0 79 0                          # io.rcp:79:0
	cmpq	$-1, %rax
	je	.LBB6_1
# %bb.2:                                # %block_3
	cmpq	$0, 8(%rsp)
	je	.LBB6_1
# %bb.3:                                # %block_2
	movb	$0, 7(%rsp)
	cmpb	$1, 7(%rsp)
	je	.LBB6_5
.LBB6_6:                                # %block_6
	.loc	0 84 0                          # io.rcp:84:0
	xorps	%xmm0, %xmm0
	movaps	%xmm0, 48(%rsp)
	movq	8(%rsp), %rax
	movq	%rax, 48(%rsp)
	movq	16(%rsp), %rcx
	movq	%rcx, 56(%rsp)
	movq	%rcx, 8(%rbx)
	movq	%rax, (%rbx)
	jmp	.LBB6_7
.LBB6_1:                                # %block_1
	.loc	0 79 0                          # io.rcp:79:0
	movb	$1, 7(%rsp)
	cmpb	$1, 7(%rsp)
	jne	.LBB6_6
.LBB6_5:                                # %block_5
	.loc	0 80 0                          # io.rcp:80:0
	movq	24(%rsp), %rsi
	movq	16(%rsp), %rdi
	callq	*8(%rsi)
	.loc	0 81 0                          # io.rcp:81:0
	movq	__unnamed_6@GOTPCREL(%rip), %rax
	movq	(%rax), %rcx
	movq	8(%rax), %rax
	movq	%rax, 8(%rbx)
	movq	%rcx, (%rbx)
.LBB6_7:                                # %block_6
	.loc	0 0 0 epilogue_begin is_stmt 0  # io.rcp:0:0
	addq	$64, %rsp
	.cfi_def_cfa_offset 16
	popq	%rbx
	.cfi_def_cfa_offset 8
	retq
.Ltmp12:
.Lfunc_end6:
	.size	io.read, .Lfunc_end6-io.read
	.cfi_endproc
                                        # -- End function
	.p2align	4, 0x90                         # -- Begin function io.print_typetype
	.type	.Lio.print_typetype,@function
.Lio.print_typetype:                    # @io.print_typetype
.Lfunc_begin7:
	.loc	0 0 0 is_stmt 1                 # io.rcp:0:0
	.cfi_startproc
# %bb.0:                                # %block_0
	pushq	%r15
	.cfi_def_cfa_offset 16
	pushq	%r14
	.cfi_def_cfa_offset 24
	pushq	%r12
	.cfi_def_cfa_offset 32
	pushq	%rbx
	.cfi_def_cfa_offset 40
	subq	$72, %rsp
	.cfi_def_cfa_offset 112
	.cfi_offset %rbx, -40
	.cfi_offset %r12, -32
	.cfi_offset %r14, -24
	.cfi_offset %r15, -16
	.loc	0 90 0 prologue_end             # io.rcp:90:0
	movq	%rdi, 8(%rsp)
	movq	%rsi, 16(%rsp)
	.loc	0 91 0                          # io.rcp:91:0
	movq	(%rsi), %rax
	cmpq	$9, %rax
	ja	.LBB7_23
# %bb.1:                                # %block_0
	jmpq	*.LJTI7_0(,%rax,8)
.LBB7_14:                               # %block_3
	.loc	0 0 0 is_stmt 0                 # io.rcp:0:0
	movq	8(%rsp), %rdi
	movq	16(%rsp), %rsi
	addq	$24, %rsi
	jmp	.LBB7_22
.LBB7_21:                               # %block_28
	movq	8(%rsp), %rdi
	movq	16(%rsp), %rsi
	addq	$8, %rsi
	jmp	.LBB7_22
.LBB7_15:                               # %block_23
	.loc	0 121 0 is_stmt 1               # io.rcp:121:0
	movq	8(%rsp), %rdi
	movq	__unnamed_7@GOTPCREL(%rip), %rsi
	jmp	.LBB7_16
.LBB7_2:                                # %block_2
	.loc	0 93 0                          # io.rcp:93:0
	movq	8(%rsp), %rdi
	movq	__unnamed_8@GOTPCREL(%rip), %rsi
	jmp	.LBB7_22
.LBB7_3:                                # %block_4
	.loc	0 99 0                          # io.rcp:99:0
	movq	8(%rsp), %rdi
	movq	__unnamed_9@GOTPCREL(%rip), %rsi
	callq	str.builder_append@PLT
	.loc	0 100 0                         # io.rcp:100:0
	movq	16(%rsp), %rax
	movq	24(%rax), %r15
	movq	32(%rax), %rax
	movq	%r15, 48(%rsp)
	movq	%rax, 56(%rsp)
	.loc	0 101 0                         # io.rcp:101:0
	movq	$0, 24(%rsp)
	movq	base.type_table@GOTPCREL(%rip), %r14
	movq	__unnamed_10@GOTPCREL(%rip), %rbx
	jmp	.LBB7_4
	.p2align	4, 0x90
.LBB7_7:                                # %block_11
                                        #   in Loop: Header=BB7_4 Depth=1
	.loc	0 103 0                         # io.rcp:103:0
	incq	24(%rsp)
.LBB7_4:                                # %block_5
                                        # =>This Inner Loop Header: Depth=1
	.loc	0 101 0                         # io.rcp:101:0
	cmpq	%r15, 24(%rsp)
	jae	.LBB7_8
# %bb.5:                                # %block_6
                                        #   in Loop: Header=BB7_4 Depth=1
	movq	24(%rsp), %rax
	movq	56(%rsp), %rcx
	movq	(%rcx,%rax,8), %rax
	movq	%rax, 64(%rsp)
	.loc	0 102 0                         # io.rcp:102:0
	movq	8(%rsp), %rdi
	leaq	(%rax,%rax,2), %rsi
	shlq	$4, %rsi
	addq	8(%r14), %rsi
	callq	.Lio.print_typetype
	.loc	0 103 0                         # io.rcp:103:0
	movq	24(%rsp), %rax
	incq	%rax
	cmpq	48(%rsp), %rax
	je	.LBB7_7
# %bb.6:                                # %block_9
                                        #   in Loop: Header=BB7_4 Depth=1
	.loc	0 104 0                         # io.rcp:104:0
	movq	8(%rsp), %rdi
	movq	%rbx, %rsi
	callq	str.builder_append@PLT
	jmp	.LBB7_7
.LBB7_8:                                # %block_8
	.loc	0 107 0                         # io.rcp:107:0
	movq	8(%rsp), %rdi
	movq	__unnamed_11@GOTPCREL(%rip), %rsi
	callq	str.builder_append@PLT
	.loc	0 108 0                         # io.rcp:108:0
	movq	16(%rsp), %rax
	cmpq	$0, 8(%rax)
	je	.LBB7_23
# %bb.9:                                # %block_12
	.loc	0 109 0                         # io.rcp:109:0
	movq	8(%rsp), %rdi
	movq	__unnamed_12@GOTPCREL(%rip), %rsi
	callq	str.builder_append@PLT
	.loc	0 110 0                         # io.rcp:110:0
	movq	16(%rsp), %r15
	movq	8(%r15), %r12
	addq	$8, %r15
	movq	$0, 32(%rsp)
	movq	__unnamed_13@GOTPCREL(%rip), %rbx
	jmp	.LBB7_10
	.p2align	4, 0x90
.LBB7_13:                               # %block_21
                                        #   in Loop: Header=BB7_10 Depth=1
	.loc	0 113 0                         # io.rcp:113:0
	movq	8(%rsp), %rdi
	movq	40(%rsp), %rax
	leaq	(%rax,%rax,2), %rsi
	shlq	$4, %rsi
	addq	8(%r14), %rsi
	callq	.Lio.print_typetype
	.loc	0 111 0                         # io.rcp:111:0
	incq	32(%rsp)
.LBB7_10:                               # %block_15
                                        # =>This Inner Loop Header: Depth=1
	.loc	0 110 0                         # io.rcp:110:0
	cmpq	%r12, 32(%rsp)
	jae	.LBB7_23
# %bb.11:                               # %block_16
                                        #   in Loop: Header=BB7_10 Depth=1
	movq	32(%rsp), %rax
	movq	8(%r15), %rcx
	movq	(%rcx,%rax,8), %rcx
	movq	%rcx, 40(%rsp)
	.loc	0 111 0                         # io.rcp:111:0
	testq	%rax, %rax
	je	.LBB7_13
# %bb.12:                               # %block_19
                                        #   in Loop: Header=BB7_10 Depth=1
	.loc	0 112 0                         # io.rcp:112:0
	movq	8(%rsp), %rdi
	movq	%rbx, %rsi
	callq	str.builder_append@PLT
	jmp	.LBB7_13
.LBB7_20:                               # %block_26
	.loc	0 135 0                         # io.rcp:135:0
	movq	8(%rsp), %rdi
	movq	__unnamed_14@GOTPCREL(%rip), %rsi
.LBB7_22:                               # %block_1
	.loc	0 0 0 is_stmt 0                 # io.rcp:0:0
	callq	str.builder_append@PLT
	jmp	.LBB7_23
.LBB7_18:                               # %block_24
	.loc	0 125 0 is_stmt 1               # io.rcp:125:0
	movq	8(%rsp), %rdi
	movl	$91, %esi
	callq	str.builder_append_u32@PLT
	.loc	0 126 0                         # io.rcp:126:0
	movq	8(%rsp), %rdi
	movq	16(%rsp), %rax
	movl	16(%rax), %esi
	callq	str.format_uint@PLT
	.loc	0 127 0                         # io.rcp:127:0
	movq	8(%rsp), %rdi
	movl	$93, %esi
	callq	str.builder_append_u32@PLT
	jmp	.LBB7_17
.LBB7_19:                               # %block_25
	.loc	0 131 0                         # io.rcp:131:0
	movq	8(%rsp), %rdi
	movq	__unnamed_15@GOTPCREL(%rip), %rsi
.LBB7_16:                               # %block_1
	.loc	0 0 0 is_stmt 0                 # io.rcp:0:0
	callq	str.builder_append@PLT
.LBB7_17:                               # %block_1
	movq	8(%rsp), %rdi
	movq	16(%rsp), %rax
	movq	8(%rax), %rax
	movq	base.type_table@GOTPCREL(%rip), %rcx
	leaq	(%rax,%rax,2), %rsi
	shlq	$4, %rsi
	addq	8(%rcx), %rsi
	callq	.Lio.print_typetype
.LBB7_23:                               # %block_1
	.loc	0 145 0 epilogue_begin is_stmt 1 # io.rcp:145:0
	addq	$72, %rsp
	.cfi_def_cfa_offset 40
	popq	%rbx
	.cfi_def_cfa_offset 32
	popq	%r12
	.cfi_def_cfa_offset 24
	popq	%r14
	.cfi_def_cfa_offset 16
	popq	%r15
	.cfi_def_cfa_offset 8
	retq
.Ltmp13:
.Lfunc_end7:
	.size	.Lio.print_typetype, .Lfunc_end7-.Lio.print_typetype
	.cfi_endproc
	.section	.rodata,"a",@progbits
	.p2align	3, 0x0
.LJTI7_0:
	.quad	.LBB7_2
	.quad	.LBB7_14
	.quad	.LBB7_3
	.quad	.LBB7_14
	.quad	.LBB7_15
	.quad	.LBB7_18
	.quad	.LBB7_19
	.quad	.LBB7_20
	.quad	.LBB7_21
	.quad	.LBB7_21
                                        # -- End function
	.text
	.p2align	4, 0x90                         # -- Begin function io.internal_print
	.type	.Lio.internal_print,@function
.Lio.internal_print:                    # @io.internal_print
.Lfunc_begin8:
	.loc	0 0 0                           # io.rcp:0:0
	.cfi_startproc
# %bb.0:                                # %block_0
	pushq	%r15
	.cfi_def_cfa_offset 16
	pushq	%r14
	.cfi_def_cfa_offset 24
	pushq	%rbx
	.cfi_def_cfa_offset 32
	subq	$144, %rsp
	.cfi_def_cfa_offset 176
	.cfi_offset %rbx, -32
	.cfi_offset %r14, -24
	.cfi_offset %r15, -16
	movq	%rdi, %rbx
.Ltmp14:
	.loc	0 148 0 prologue_end            # io.rcp:148:0
	movq	(%rsi), %rax
	movq	8(%rsi), %rcx
	movq	%rcx, 88(%rsp)
	movq	%rax, 80(%rsp)
	movq	(%rdx), %rax
	movq	8(%rdx), %rcx
	movq	%rax, 64(%rsp)
	movq	%rcx, 72(%rsp)
	.loc	0 149 0                         # io.rcp:149:0
	movq	mem.temp_alloc@GOTPCREL(%rip), %rsi
	leaq	96(%rsp), %rdi
	callq	str.create_builder@PLT
	movq	96(%rsp), %rax
	movq	104(%rsp), %rcx
	movq	%rcx, 56(%rsp)
	movq	%rax, 48(%rsp)
	.loc	0 150 0                         # io.rcp:150:0
	movq	$0, 16(%rsp)
	.loc	0 151 0                         # io.rcp:151:0
	movb	$0, 14(%rsp)
	.loc	0 152 0                         # io.rcp:152:0
	movq	80(%rsp), %r15
	movq	88(%rsp), %rax
	movq	%rax, 32(%rsp)
	movq	$0, 40(%rsp)
	leaq	48(%rsp), %r14
	jmp	.LBB8_1
	.p2align	4, 0x90
.LBB8_7:                                # %block_9
                                        #   in Loop: Header=BB8_1 Depth=1
	.loc	0 154 0                         # io.rcp:154:0
	movb	$1, 14(%rsp)
.LBB8_8:                                # %block_11
                                        #   in Loop: Header=BB8_1 Depth=1
	.loc	0 153 0                         # io.rcp:153:0
	incq	40(%rsp)
	movq	32(%rsp), %rdi
	callq	str.advance@PLT
	movq	%rax, 32(%rsp)
.LBB8_1:                                # %block_1
                                        # =>This Inner Loop Header: Depth=1
	.loc	0 152 0                         # io.rcp:152:0
	cmpq	%r15, 40(%rsp)
	jae	.LBB8_12
# %bb.2:                                # %block_2
                                        #   in Loop: Header=BB8_1 Depth=1
	movq	32(%rsp), %rdi
	callq	str.deref@PLT
	movl	%eax, 28(%rsp)
	.loc	0 153 0                         # io.rcp:153:0
	cmpl	$37, %eax
	jne	.LBB8_3
# %bb.4:                                # %block_7
                                        #   in Loop: Header=BB8_1 Depth=1
	.loc	0 167 0                         # io.rcp:167:0
	movq	64(%rsp), %rax
	cmpq	16(%rsp), %rax
	jle	.LBB8_3
# %bb.5:                                # %block_5
                                        #   in Loop: Header=BB8_1 Depth=1
	movb	$1, 15(%rsp)
	cmpb	$1, 15(%rsp)
	je	.LBB8_7
	jmp	.LBB8_10
	.p2align	4, 0x90
.LBB8_3:                                # %block_6
                                        #   in Loop: Header=BB8_1 Depth=1
	movb	$0, 15(%rsp)
	cmpb	$1, 15(%rsp)
	je	.LBB8_7
.LBB8_10:                               # %block_10
                                        #   in Loop: Header=BB8_1 Depth=1
	.loc	0 156 0                         # io.rcp:156:0
	cmpb	$0, 14(%rsp)
	je	.LBB8_11
# %bb.9:                                # %block_12
                                        #   in Loop: Header=BB8_1 Depth=1
	.loc	0 157 0                         # io.rcp:157:0
	movq	16(%rsp), %rax
	movq	72(%rsp), %rcx
	movq	%rax, %rsi
	shlq	$4, %rsi
	movq	(%rcx,%rsi), %rdx
	movq	8(%rcx,%rsi), %rcx
	movq	%rdx, 128(%rsp)
	movq	%rcx, 136(%rsp)
	.loc	0 158 0                         # io.rcp:158:0
	incq	%rax
	movq	%rax, 16(%rsp)
	.loc	0 159 0                         # io.rcp:159:0
	movl	28(%rsp), %esi
	movq	%r14, %rdi
	callq	.Lio.print_type_with_formatter
	.loc	0 160 0                         # io.rcp:160:0
	movb	$0, 14(%rsp)
	jmp	.LBB8_8
	.p2align	4, 0x90
.LBB8_11:                               # %block_13
                                        #   in Loop: Header=BB8_1 Depth=1
	.loc	0 162 0                         # io.rcp:162:0
	movl	28(%rsp), %esi
	movq	%r14, %rdi
	callq	str.builder_append_u32@PLT
	jmp	.LBB8_8
.LBB8_12:                               # %block_4
	.loc	0 167 0                         # io.rcp:167:0
	cmpb	$0, 14(%rsp)
	je	.LBB8_14
# %bb.13:                               # %block_15
	.loc	0 168 0                         # io.rcp:168:0
	movq	16(%rsp), %rax
	movq	72(%rsp), %rcx
	movq	%rax, %rsi
	shlq	$4, %rsi
	movq	(%rcx,%rsi), %rdx
	movq	8(%rcx,%rsi), %rcx
	movq	%rdx, 112(%rsp)
	movq	%rcx, 120(%rsp)
	.loc	0 169 0                         # io.rcp:169:0
	incq	%rax
	movq	%rax, 16(%rsp)
	leaq	48(%rsp), %rdi
	.loc	0 170 0                         # io.rcp:170:0
	xorl	%esi, %esi
	callq	.Lio.print_type_with_formatter
	.loc	0 171 0                         # io.rcp:171:0
	movb	$0, 14(%rsp)
.LBB8_14:                               # %block_17
	.loc	0 174 0                         # io.rcp:174:0
	movq	48(%rsp), %rax
	movq	56(%rsp), %rcx
	movq	%rcx, 8(%rbx)
	movq	%rax, (%rbx)
	.loc	0 174 0 epilogue_begin is_stmt 0 # io.rcp:174:0
	addq	$144, %rsp
	.cfi_def_cfa_offset 32
	popq	%rbx
	.cfi_def_cfa_offset 24
	popq	%r14
	.cfi_def_cfa_offset 16
	popq	%r15
	.cfi_def_cfa_offset 8
	retq
.Ltmp15:
.Lfunc_end8:
	.size	.Lio.internal_print, .Lfunc_end8-.Lio.internal_print
	.cfi_endproc
                                        # -- End function
	.p2align	4, 0x90                         # -- Begin function io.print_type_with_formatter
	.type	.Lio.print_type_with_formatter,@function
.Lio.print_type_with_formatter:         # @io.print_type_with_formatter
.Lfunc_begin9:
	.loc	0 0 0 is_stmt 1                 # io.rcp:0:0
	.cfi_startproc
# %bb.0:                                # %block_0
	subq	$88, %rsp
	.cfi_def_cfa_offset 96
.Ltmp16:
	.loc	0 177 0 prologue_end            # io.rcp:177:0
	movq	%rdi, 32(%rsp)
	movl	%esi, 28(%rsp)
	movq	%rdx, 72(%rsp)
	movq	%rcx, 80(%rsp)
	movq	%rdx, 48(%rsp)
	movq	%rcx, 56(%rsp)
	.loc	0 178 0                         # io.rcp:178:0
	movq	base.type_table@GOTPCREL(%rip), %rax
	leaq	(%rdx,%rdx,2), %rcx
	shlq	$4, %rcx
	addq	8(%rax), %rcx
	movq	%rcx, 16(%rsp)
	.loc	0 179 0                         # io.rcp:179:0
	cmpl	$115, %esi
	jne	.LBB9_3
# %bb.1:                                # %block_7
	movq	16(%rsp), %rax
	cmpq	$4, (%rax)
	jne	.LBB9_3
# %bb.2:                                # %block_5
	movb	$1, 14(%rsp)
	cmpb	$0, 14(%rsp)
	jne	.LBB9_4
	jmp	.LBB9_9
.LBB9_3:                                # %block_6
	movb	$0, 14(%rsp)
	cmpb	$0, 14(%rsp)
	je	.LBB9_9
.LBB9_4:                                # %block_3
	movq	16(%rsp), %rax
	cmpq	$2, 8(%rax)
	jne	.LBB9_9
# %bb.5:                                # %block_1
	movb	$1, 15(%rsp)
	cmpb	$0, 15(%rsp)
	jne	.LBB9_10
.LBB9_6:                                # %block_10
	.loc	0 184 0                         # io.rcp:184:0
	cmpl	$99, 28(%rsp)
	jne	.LBB9_13
# %bb.7:                                # %block_22
	.loc	0 182 0                         # io.rcp:182:0
	movq	16(%rsp), %rax
	cmpq	$1, (%rax)
	jne	.LBB9_13
# %bb.8:                                # %block_20
	movb	$1, 12(%rsp)
	cmpb	$0, 12(%rsp)
	jne	.LBB9_14
	jmp	.LBB9_22
.LBB9_9:                                # %block_2
	.loc	0 179 0                         # io.rcp:179:0
	movb	$0, 15(%rsp)
	cmpb	$0, 15(%rsp)
	je	.LBB9_6
.LBB9_10:                               # %block_9
	.loc	0 180 0                         # io.rcp:180:0
	movq	56(%rsp), %rax
	movq	(%rax), %rax
	movq	%rax, 64(%rsp)
	.loc	0 181 0                         # io.rcp:181:0
	movq	$0, 40(%rsp)
	.p2align	4, 0x90
.LBB9_11:                               # %block_12
                                        # =>This Inner Loop Header: Depth=1
	.loc	0 198 0                         # io.rcp:198:0
	movq	64(%rsp), %rax
	movq	40(%rsp), %rcx
	cmpb	$0, (%rax,%rcx)
	je	.LBB9_20
# %bb.12:                               # %block_13
                                        #   in Loop: Header=BB9_11 Depth=1
	.loc	0 182 0                         # io.rcp:182:0
	movq	32(%rsp), %rdi
	movq	64(%rsp), %rax
	movq	40(%rsp), %rcx
	movzbl	(%rax,%rcx), %esi
	callq	str.builder_append_u8@PLT
	incq	40(%rsp)
	jmp	.LBB9_11
.LBB9_13:                               # %block_21
	movb	$0, 12(%rsp)
	cmpb	$0, 12(%rsp)
	je	.LBB9_22
.LBB9_14:                               # %block_18
	movq	16(%rsp), %rax
	cmpq	$2, 8(%rax)
	je	.LBB9_16
# %bb.15:                               # %block_26
	movq	16(%rsp), %rax
	cmpq	$4, 8(%rax)
	jne	.LBB9_21
.LBB9_16:                               # %block_24
	movb	$1, 11(%rsp)
	cmpb	$0, 11(%rsp)
	je	.LBB9_22
.LBB9_17:                               # %block_16
	movb	$1, 13(%rsp)
	cmpb	$0, 13(%rsp)
	jne	.LBB9_23
.LBB9_18:                               # %block_29
	.loc	0 194 0                         # io.rcp:194:0
	movq	32(%rsp), %rdi
	movq	48(%rsp), %rsi
	movq	56(%rsp), %rdx
	callq	.Lio.print_type
	.loc	0 195 0                         # io.rcp:195:0
	cmpl	$0, 28(%rsp)
	je	.LBB9_20
# %bb.19:                               # %block_37
	.loc	0 196 0                         # io.rcp:196:0
	movq	32(%rsp), %rdi
	movl	28(%rsp), %esi
	jmp	.LBB9_29
.LBB9_20:                               # %block_11
	.loc	0 198 0 epilogue_begin          # io.rcp:198:0
	addq	$88, %rsp
	.cfi_def_cfa_offset 8
	retq
.LBB9_21:                               # %block_25
	.cfi_def_cfa_offset 96
	.loc	0 182 0                         # io.rcp:182:0
	movb	$0, 11(%rsp)
	cmpb	$0, 11(%rsp)
	jne	.LBB9_17
.LBB9_22:                               # %block_17
	movb	$0, 13(%rsp)
	cmpb	$0, 13(%rsp)
	je	.LBB9_18
.LBB9_23:                               # %block_28
	.loc	0 186 0                         # io.rcp:186:0
	movl	$0, 24(%rsp)
	.loc	0 187 0                         # io.rcp:187:0
	movq	16(%rsp), %rax
	cmpq	$2, 8(%rax)
	jne	.LBB9_25
# %bb.24:                               # %block_31
	.loc	0 188 0                         # io.rcp:188:0
	movq	56(%rsp), %rax
	movzbl	(%rax), %eax
	jmp	.LBB9_27
.LBB9_25:                               # %block_32
	.loc	0 189 0                         # io.rcp:189:0
	movq	16(%rsp), %rax
	cmpq	$4, 8(%rax)
	jne	.LBB9_28
# %bb.26:                               # %block_34
	.loc	0 190 0                         # io.rcp:190:0
	movq	56(%rsp), %rax
	movl	(%rax), %eax
.LBB9_27:                               # %block_33
	.loc	0 0 0 is_stmt 0                 # io.rcp:0:0
	movl	%eax, 24(%rsp)
.LBB9_28:                               # %block_33
	.loc	0 192 0 is_stmt 1               # io.rcp:192:0
	movq	32(%rsp), %rdi
	movl	24(%rsp), %esi
.LBB9_29:                               # %block_33
	.loc	0 0 0 is_stmt 0                 # io.rcp:0:0
	callq	str.builder_append_u32@PLT
	.loc	0 198 0 epilogue_begin is_stmt 1 # io.rcp:198:0
	addq	$88, %rsp
	.cfi_def_cfa_offset 8
	retq
.Ltmp17:
.Lfunc_end9:
	.size	.Lio.print_type_with_formatter, .Lfunc_end9-.Lio.print_type_with_formatter
	.cfi_endproc
                                        # -- End function
	.section	.rodata.cst16,"aM",@progbits,16
	.p2align	4, 0x0                          # -- Begin function io.print_type
.LCPI10_0:
	.zero	16
	.text
	.p2align	4, 0x90
	.type	.Lio.print_type,@function
.Lio.print_type:                        # @io.print_type
.Lfunc_begin10:
	.loc	0 0 0                           # io.rcp:0:0
	.cfi_startproc
# %bb.0:                                # %block_0
	pushq	%r15
	.cfi_def_cfa_offset 16
	pushq	%r14
	.cfi_def_cfa_offset 24
	pushq	%r13
	.cfi_def_cfa_offset 32
	pushq	%r12
	.cfi_def_cfa_offset 40
	pushq	%rbx
	.cfi_def_cfa_offset 48
	subq	$480, %rsp                      # imm = 0x1E0
	.cfi_def_cfa_offset 528
	.cfi_offset %rbx, -48
	.cfi_offset %r12, -40
	.cfi_offset %r13, -32
	.cfi_offset %r14, -24
	.cfi_offset %r15, -16
	.loc	0 200 0 prologue_end            # io.rcp:200:0
	movq	%rdi, 8(%rsp)
	movq	%rsi, 296(%rsp)
	movq	%rdx, 304(%rsp)
	movq	%rdx, 24(%rsp)
	movq	%rsi, 16(%rsp)
	.loc	0 201 0                         # io.rcp:201:0
	movq	base.type_table@GOTPCREL(%rip), %rax
	movq	8(%rax), %rcx
	leaq	(%rsi,%rsi,2), %rdx
	shlq	$4, %rdx
	leaq	(%rcx,%rdx), %rsi
	movq	%rsi, 88(%rsp)
	.loc	0 202 0                         # io.rcp:202:0
	movq	(%rcx,%rdx), %rcx
	decq	%rcx
	cmpq	$7, %rcx
	ja	.LBB10_44
# %bb.1:                                # %block_0
	jmpq	*.LJTI10_0(,%rcx,8)
.LBB10_2:                               # %block_3
	.loc	0 206 0                         # io.rcp:206:0
	movq	88(%rsp), %rcx
	movq	8(%rcx), %rdx
	movq	16(%rcx), %rsi
	movq	%rdx, 48(%rsp)
	movq	%rsi, 56(%rsp)
	movq	24(%rcx), %rsi
	movq	%rsi, 64(%rsp)
	movq	32(%rcx), %rcx
	movq	%rcx, 72(%rsp)
	.loc	0 207 0                         # io.rcp:207:0
	testq	%rdx, %rdx
	je	.LBB10_3
# %bb.7:                                # %block_5
	.loc	0 214 0                         # io.rcp:214:0
	cmpq	$1, 48(%rsp)
	jne	.LBB10_8
# %bb.6:                                # %block_10
	.loc	0 215 0                         # io.rcp:215:0
	movq	24(%rsp), %rax
	movq	(%rax), %rcx
	movq	8(%rax), %rax
	movq	%rcx, 464(%rsp)
	movq	%rax, 472(%rsp)
	movq	%rcx, 216(%rsp)
	movq	%rax, 224(%rsp)
	.loc	0 216 0                         # io.rcp:216:0
	movq	8(%rsp), %rdi
	leaq	216(%rsp), %rsi
	jmp	.LBB10_43
.LBB10_45:                              # %block_61
	.loc	0 308 0                         # io.rcp:308:0
	movq	24(%rsp), %rax
	movq	(%rax), %rsi
	movq	%rsi, 344(%rsp)
.LBB10_10:                              # %block_1
	.loc	0 0 0 is_stmt 0                 # io.rcp:0:0
	movq	8(%rsp), %rdi
	callq	str.format_uint@PLT
	jmp	.LBB10_44
.LBB10_37:                              # %block_53
	.loc	0 285 0 is_stmt 1               # io.rcp:285:0
	movq	88(%rsp), %rax
	movq	8(%rax), %rcx
	movq	16(%rax), %rdx
	movq	%rcx, 144(%rsp)
	movq	%rdx, 152(%rsp)
	movq	24(%rax), %rcx
	movq	%rcx, 160(%rsp)
	movq	32(%rax), %rcx
	movq	%rcx, 168(%rsp)
	movq	40(%rax), %rax
	movq	%rax, 176(%rsp)
	leaq	160(%rsp), %rsi
	.loc	0 286 0                         # io.rcp:286:0
	movq	8(%rsp), %rdi
	callq	str.builder_append@PLT
	.loc	0 287 0                         # io.rcp:287:0
	movq	8(%rsp), %rdi
	movq	__unnamed_16@GOTPCREL(%rip), %rsi
	callq	str.builder_append@PLT
	.loc	0 288 0                         # io.rcp:288:0
	movq	144(%rsp), %r13
	movq	$0, 32(%rsp)
	leaq	192(%rsp), %rbx
	movq	__unnamed_17@GOTPCREL(%rip), %r14
	leaq	144(%rsp), %r15
	movq	__unnamed_18@GOTPCREL(%rip), %r12
	jmp	.LBB10_38
	.p2align	4, 0x90
.LBB10_41:                              # %block_60
                                        #   in Loop: Header=BB10_38 Depth=1
	.loc	0 301 0                         # io.rcp:301:0
	incq	32(%rsp)
.LBB10_38:                              # %block_54
                                        # =>This Inner Loop Header: Depth=1
	.loc	0 288 0                         # io.rcp:288:0
	cmpq	%r13, 32(%rsp)
	jae	.LBB10_42
# %bb.39:                               # %block_55
                                        #   in Loop: Header=BB10_38 Depth=1
	.loc	0 289 0                         # io.rcp:289:0
	movq	32(%rsp), %rax
	movq	152(%rsp), %rcx
	leaq	(%rax,%rax,2), %rax
	movq	(%rcx,%rax,8), %rdx
	movq	8(%rcx,%rax,8), %rsi
	movq	%rdx, 192(%rsp)
	movq	%rsi, 200(%rsp)
	movq	16(%rcx,%rax,8), %rax
	movq	%rax, 208(%rsp)
	.loc	0 290 0                         # io.rcp:290:0
	movq	8(%rsp), %rdi
	movq	%rbx, %rsi
	callq	str.builder_append@PLT
	.loc	0 291 0                         # io.rcp:291:0
	movq	8(%rsp), %rdi
	movq	%r14, %rsi
	callq	str.builder_append@PLT
	.loc	0 292 0                         # io.rcp:292:0
	movq	24(%rsp), %rax
	movq	%rax, 136(%rsp)
	.loc	0 293 0                         # io.rcp:293:0
	movq	32(%rsp), %rsi
	movq	%r15, %rdi
	callq	base.get_struct_member_offset@PLT
	movq	%rax, 352(%rsp)
	.loc	0 294 0                         # io.rcp:294:0
	xorps	%xmm0, %xmm0
	movaps	%xmm0, 96(%rsp)
	movq	208(%rsp), %rsi
	movq	%rsi, 96(%rsp)
	addq	136(%rsp), %rax
	movq	%rax, 104(%rsp)
	movq	96(%rsp), %rax
	movq	%rax, 112(%rsp)
	movq	104(%rsp), %rax
	movq	%rax, 120(%rsp)
	.loc	0 298 0                         # io.rcp:298:0
	movq	%rsi, 112(%rsp)
	.loc	0 300 0                         # io.rcp:300:0
	movq	8(%rsp), %rdi
	movq	120(%rsp), %rdx
	callq	.Lio.print_type
	.loc	0 301 0                         # io.rcp:301:0
	movq	32(%rsp), %rax
	incq	%rax
	cmpq	144(%rsp), %rax
	je	.LBB10_41
# %bb.40:                               # %block_58
                                        #   in Loop: Header=BB10_38 Depth=1
	.loc	0 302 0                         # io.rcp:302:0
	movq	8(%rsp), %rdi
	movq	%r12, %rsi
	callq	str.builder_append@PLT
	jmp	.LBB10_41
.LBB10_42:                              # %block_57
	.loc	0 305 0                         # io.rcp:305:0
	movq	8(%rsp), %rdi
	movq	__unnamed_19@GOTPCREL(%rip), %rsi
	jmp	.LBB10_43
.LBB10_46:                              # %block_65
	.loc	0 318 0                         # io.rcp:318:0
	movq	88(%rsp), %rax
	movq	8(%rax), %rcx
	movq	16(%rax), %rdx
	movq	%rcx, 232(%rsp)
	movq	%rdx, 240(%rsp)
	movq	24(%rax), %rcx
	movq	%rcx, 248(%rsp)
	movq	32(%rax), %rcx
	movq	%rcx, 256(%rsp)
	movq	40(%rax), %rdi
	movq	%rdi, 264(%rsp)
	.loc	0 319 0                         # io.rcp:319:0
	callq	base.get_type_size@PLT
	movq	%rax, 336(%rsp)
	.loc	0 320 0                         # io.rcp:320:0
	decq	%rax
	cmpq	$7, %rax
	ja	.LBB10_53
# %bb.47:                               # %block_65
	jmpq	*.LJTI10_1(,%rax,8)
.LBB10_48:                              # %block_67
	.loc	0 321 0                         # io.rcp:321:0
	movq	24(%rsp), %rax
	movsbq	(%rax), %rax
	jmp	.LBB10_52
.LBB10_3:                               # %block_4
	.loc	0 208 0                         # io.rcp:208:0
	movq	24(%rsp), %rax
	cmpb	$0, (%rax)
	je	.LBB10_5
# %bb.4:                                # %block_7
	.loc	0 209 0                         # io.rcp:209:0
	movq	8(%rsp), %rdi
	movq	__unnamed_20@GOTPCREL(%rip), %rsi
	jmp	.LBB10_43
.LBB10_8:                               # %block_11
	.loc	0 225 0                         # io.rcp:225:0
	cmpq	$2, 48(%rsp)
	jne	.LBB10_11
# %bb.9:                                # %block_13
	.loc	0 226 0                         # io.rcp:226:0
	movq	24(%rsp), %rax
	movzbl	(%rax), %esi
	movq	%rsi, 456(%rsp)
	jmp	.LBB10_10
.LBB10_50:                              # %block_69
	.loc	0 323 0                         # io.rcp:323:0
	movq	24(%rsp), %rax
	movslq	(%rax), %rax
	jmp	.LBB10_52
.LBB10_49:                              # %block_68
	.loc	0 322 0                         # io.rcp:322:0
	movq	24(%rsp), %rax
	movswq	(%rax), %rax
	jmp	.LBB10_52
.LBB10_51:                              # %block_70
	.loc	0 324 0                         # io.rcp:324:0
	movq	24(%rsp), %rax
	movq	(%rax), %rax
.LBB10_52:                              # %block_66
	.loc	0 0 0 is_stmt 0                 # io.rcp:0:0
	movq	%rax, 40(%rsp)
.LBB10_53:                              # %block_66
	.loc	0 320 0 is_stmt 1               # io.rcp:320:0
	movq	40(%rsp), %rax
	movq	%rax, 128(%rsp)
	.loc	0 327 0                         # io.rcp:327:0
	movq	248(%rsp), %rax
	movq	$0, 80(%rsp)
	.loc	0 324 0                         # io.rcp:324:0
	cmpq	%rax, 80(%rsp)
	jae	.LBB10_44
	.p2align	4, 0x90
.LBB10_55:                              # %block_72
                                        # =>This Inner Loop Header: Depth=1
	movq	80(%rsp), %rcx
	movq	256(%rsp), %rdx
	leaq	(%rcx,%rcx,2), %rcx
	movq	(%rdx,%rcx,8), %rsi
	movq	8(%rdx,%rcx,8), %rdi
	movq	%rsi, 312(%rsp)
	movq	%rdi, 320(%rsp)
	movq	16(%rdx,%rcx,8), %rcx
	movq	%rcx, 328(%rsp)
	movq	%rsi, 272(%rsp)
	movq	%rcx, 288(%rsp)
	movq	%rdi, 280(%rsp)
	.loc	0 328 0                         # io.rcp:328:0
	cmpq	128(%rsp), %rcx
	je	.LBB10_56
# %bb.57:                               # %block_76
                                        #   in Loop: Header=BB10_55 Depth=1
	incq	80(%rsp)
	.loc	0 324 0                         # io.rcp:324:0
	cmpq	%rax, 80(%rsp)
	jb	.LBB10_55
	jmp	.LBB10_44
.LBB10_56:                              # %block_75
	.loc	0 329 0                         # io.rcp:329:0
	movq	8(%rsp), %rdi
	leaq	272(%rsp), %rsi
	jmp	.LBB10_43
.LBB10_5:                               # %block_8
	.loc	0 211 0                         # io.rcp:211:0
	movq	8(%rsp), %rdi
	movq	__unnamed_21@GOTPCREL(%rip), %rsi
.LBB10_43:                              # %block_1
	.loc	0 0 0 is_stmt 0                 # io.rcp:0:0
	callq	str.builder_append@PLT
.LBB10_44:                              # %block_1
	.loc	0 337 0 epilogue_begin is_stmt 1 # io.rcp:337:0
	addq	$480, %rsp                      # imm = 0x1E0
	.cfi_def_cfa_offset 48
	popq	%rbx
	.cfi_def_cfa_offset 40
	popq	%r12
	.cfi_def_cfa_offset 32
	popq	%r13
	.cfi_def_cfa_offset 24
	popq	%r14
	.cfi_def_cfa_offset 16
	popq	%r15
	.cfi_def_cfa_offset 8
	retq
.LBB10_11:                              # %block_14
	.cfi_def_cfa_offset 528
	.loc	0 229 0                         # io.rcp:229:0
	cmpq	$3, 48(%rsp)
	jne	.LBB10_13
# %bb.12:                               # %block_16
	.loc	0 230 0                         # io.rcp:230:0
	movq	24(%rsp), %rax
	movzwl	(%rax), %esi
	movq	%rsi, 448(%rsp)
	jmp	.LBB10_10
.LBB10_13:                              # %block_17
	.loc	0 233 0                         # io.rcp:233:0
	cmpq	$4, 48(%rsp)
	jne	.LBB10_15
# %bb.14:                               # %block_19
	.loc	0 234 0                         # io.rcp:234:0
	movq	24(%rsp), %rax
	movl	(%rax), %esi
	movq	%rsi, 440(%rsp)
	jmp	.LBB10_10
.LBB10_15:                              # %block_20
	.loc	0 237 0                         # io.rcp:237:0
	cmpq	$5, 48(%rsp)
	jne	.LBB10_17
# %bb.16:                               # %block_22
	.loc	0 238 0                         # io.rcp:238:0
	movq	24(%rsp), %rax
	movq	(%rax), %rsi
	movq	%rsi, 432(%rsp)
	jmp	.LBB10_10
.LBB10_17:                              # %block_23
	.loc	0 241 0                         # io.rcp:241:0
	cmpq	$6, 48(%rsp)
	jne	.LBB10_20
# %bb.18:                               # %block_25
	.loc	0 242 0                         # io.rcp:242:0
	movq	24(%rsp), %rax
	movsbq	(%rax), %rsi
	movq	%rsi, 424(%rsp)
	jmp	.LBB10_19
.LBB10_20:                              # %block_26
	.loc	0 245 0                         # io.rcp:245:0
	cmpq	$7, 48(%rsp)
	jne	.LBB10_22
# %bb.21:                               # %block_28
	.loc	0 246 0                         # io.rcp:246:0
	movq	24(%rsp), %rax
	movswq	(%rax), %rsi
	movq	%rsi, 416(%rsp)
	jmp	.LBB10_19
.LBB10_22:                              # %block_29
	.loc	0 249 0                         # io.rcp:249:0
	cmpq	$8, 48(%rsp)
	jne	.LBB10_24
# %bb.23:                               # %block_31
	.loc	0 250 0                         # io.rcp:250:0
	movq	24(%rsp), %rax
	movslq	(%rax), %rsi
	movq	%rsi, 408(%rsp)
	jmp	.LBB10_19
.LBB10_24:                              # %block_32
	.loc	0 253 0                         # io.rcp:253:0
	cmpq	$9, 48(%rsp)
	jne	.LBB10_26
# %bb.25:                               # %block_34
	.loc	0 254 0                         # io.rcp:254:0
	movq	24(%rsp), %rax
	movq	(%rax), %rsi
	movq	%rsi, 400(%rsp)
	jmp	.LBB10_19
.LBB10_26:                              # %block_35
	.loc	0 257 0                         # io.rcp:257:0
	cmpq	$14, 48(%rsp)
	jne	.LBB10_28
# %bb.27:                               # %block_37
	.loc	0 258 0                         # io.rcp:258:0
	movq	24(%rsp), %rax
	movq	(%rax), %rsi
	movq	%rsi, 392(%rsp)
.LBB10_19:                              # %block_1
	.loc	0 0 0 is_stmt 0                 # io.rcp:0:0
	movq	8(%rsp), %rdi
	callq	str.format_int@PLT
	jmp	.LBB10_44
.LBB10_28:                              # %block_38
	.loc	0 261 0 is_stmt 1               # io.rcp:261:0
	cmpq	$15, 48(%rsp)
	jne	.LBB10_30
# %bb.29:                               # %block_40
	.loc	0 262 0                         # io.rcp:262:0
	movq	24(%rsp), %rax
	movq	(%rax), %rsi
	movq	%rsi, 384(%rsp)
	jmp	.LBB10_10
.LBB10_30:                              # %block_41
	.loc	0 265 0                         # io.rcp:265:0
	cmpq	$10, 48(%rsp)
	jne	.LBB10_32
# %bb.31:                               # %block_43
	.loc	0 266 0                         # io.rcp:266:0
	movq	24(%rsp), %rax
	movss	(%rax), %xmm0                   # xmm0 = mem[0],zero,zero,zero
	movss	%xmm0, 188(%rsp)
	.loc	0 267 0                         # io.rcp:267:0
	movq	8(%rsp), %rsi
	movl	$10, %edi
	movl	$100, %edx
	callq	"str.format_float:(type,*str.Builder,f32,i32)->void"@PLT
	jmp	.LBB10_44
.LBB10_32:                              # %block_44
	.loc	0 269 0                         # io.rcp:269:0
	cmpq	$11, 48(%rsp)
	jne	.LBB10_34
# %bb.33:                               # %block_46
	.loc	0 270 0                         # io.rcp:270:0
	movq	24(%rsp), %rax
	movsd	(%rax), %xmm0                   # xmm0 = mem[0],zero
	movsd	%xmm0, 376(%rsp)
	.loc	0 271 0                         # io.rcp:271:0
	movq	8(%rsp), %rsi
	movl	$11, %edi
	movl	$100, %edx
	callq	"str.format_float:(type,*str.Builder,f64,i32)->void"@PLT
	jmp	.LBB10_44
.LBB10_34:                              # %block_47
	.loc	0 273 0                         # io.rcp:273:0
	cmpq	$16, 48(%rsp)
	jne	.LBB10_36
# %bb.35:                               # %block_49
	.loc	0 274 0                         # io.rcp:274:0
	movq	24(%rsp), %rcx
	movq	(%rcx), %rcx
	movq	%rcx, 368(%rsp)
	.loc	0 275 0                         # io.rcp:275:0
	leaq	(%rcx,%rcx,2), %rsi
	shlq	$4, %rsi
	addq	8(%rax), %rsi
	movq	%rsi, 360(%rsp)
	.loc	0 276 0                         # io.rcp:276:0
	movq	8(%rsp), %rdi
	callq	.Lio.print_typetype
	jmp	.LBB10_44
.LBB10_36:                              # %block_50
	.loc	0 279 0                         # io.rcp:279:0
	movq	8(%rsp), %rdi
	movl	$37, %esi
	callq	str.builder_append_u32@PLT
	jmp	.LBB10_44
.Ltmp18:
.Lfunc_end10:
	.size	.Lio.print_type, .Lfunc_end10-.Lio.print_type
	.cfi_endproc
	.section	.rodata,"a",@progbits
	.p2align	3, 0x0
.LJTI10_0:
	.quad	.LBB10_2
	.quad	.LBB10_44
	.quad	.LBB10_37
	.quad	.LBB10_45
	.quad	.LBB10_44
	.quad	.LBB10_44
	.quad	.LBB10_44
	.quad	.LBB10_46
.LJTI10_1:
	.quad	.LBB10_48
	.quad	.LBB10_49
	.quad	.LBB10_53
	.quad	.LBB10_50
	.quad	.LBB10_53
	.quad	.LBB10_53
	.quad	.LBB10_53
	.quad	.LBB10_51
                                        # -- End function
	.type	.L__unnamed_22,@object          # @0
.L__unnamed_22:
	.zero	1
	.size	.L__unnamed_22, 1

	.type	__unnamed_1,@object             # @1
	.globl	__unnamed_1
	.p2align	3, 0x0
__unnamed_1:
	.quad	0                               # 0x0
	.quad	.L__unnamed_22
	.size	__unnamed_1, 16

	.type	.L__unnamed_23,@object          # @2
.L__unnamed_23:
	.zero	1
	.size	.L__unnamed_23, 1

	.type	__unnamed_2,@object             # @3
	.globl	__unnamed_2
	.p2align	3, 0x0
__unnamed_2:
	.quad	0                               # 0x0
	.quad	.L__unnamed_23
	.size	__unnamed_2, 16

	.type	.L__unnamed_24,@object          # @4
	.p2align	4, 0x0
.L__unnamed_24:
	.asciz	"Failed to allocate buffer for readln"
	.size	.L__unnamed_24, 37

	.type	__unnamed_3,@object             # @5
	.globl	__unnamed_3
	.p2align	3, 0x0
__unnamed_3:
	.quad	36                              # 0x24
	.quad	.L__unnamed_24
	.size	__unnamed_3, 16

	.type	.L__unnamed_25,@object          # @6
.L__unnamed_25:
	.zero	1
	.size	.L__unnamed_25, 1

	.type	__unnamed_4,@object             # @7
	.globl	__unnamed_4
	.p2align	3, 0x0
__unnamed_4:
	.quad	0                               # 0x0
	.quad	.L__unnamed_25
	.size	__unnamed_4, 16

	.type	.L__unnamed_26,@object          # @8
.L__unnamed_26:
	.zero	1
	.size	.L__unnamed_26, 1

	.type	__unnamed_5,@object             # @9
	.globl	__unnamed_5
	.p2align	3, 0x0
__unnamed_5:
	.quad	0                               # 0x0
	.quad	.L__unnamed_26
	.size	__unnamed_5, 16

	.type	.L__unnamed_27,@object          # @10
.L__unnamed_27:
	.zero	1
	.size	.L__unnamed_27, 1

	.type	__unnamed_6,@object             # @11
	.globl	__unnamed_6
	.p2align	3, 0x0
__unnamed_6:
	.quad	0                               # 0x0
	.quad	.L__unnamed_27
	.size	__unnamed_6, 16

	.type	.L__unnamed_28,@object          # @12
.L__unnamed_28:
	.asciz	"invalid"
	.size	.L__unnamed_28, 8

	.type	__unnamed_8,@object             # @13
	.globl	__unnamed_8
	.p2align	3, 0x0
__unnamed_8:
	.quad	7                               # 0x7
	.quad	.L__unnamed_28
	.size	__unnamed_8, 16

	.type	.L__unnamed_29,@object          # @14
.L__unnamed_29:
	.asciz	"fn("
	.size	.L__unnamed_29, 4

	.type	__unnamed_9,@object             # @15
	.globl	__unnamed_9
	.p2align	3, 0x0
__unnamed_9:
	.quad	3                               # 0x3
	.quad	.L__unnamed_29
	.size	__unnamed_9, 16

	.type	.L__unnamed_30,@object          # @16
.L__unnamed_30:
	.asciz	")"
	.size	.L__unnamed_30, 2

	.type	__unnamed_11,@object            # @17
	.globl	__unnamed_11
	.p2align	3, 0x0
__unnamed_11:
	.quad	1                               # 0x1
	.quad	.L__unnamed_30
	.size	__unnamed_11, 16

	.type	.L__unnamed_31,@object          # @18
.L__unnamed_31:
	.asciz	", "
	.size	.L__unnamed_31, 3

	.type	__unnamed_10,@object            # @19
	.globl	__unnamed_10
	.p2align	3, 0x0
__unnamed_10:
	.quad	2                               # 0x2
	.quad	.L__unnamed_31
	.size	__unnamed_10, 16

	.type	.L__unnamed_32,@object          # @20
.L__unnamed_32:
	.asciz	" -> "
	.size	.L__unnamed_32, 5

	.type	__unnamed_12,@object            # @21
	.globl	__unnamed_12
	.p2align	3, 0x0
__unnamed_12:
	.quad	4                               # 0x4
	.quad	.L__unnamed_32
	.size	__unnamed_12, 16

	.type	.L__unnamed_33,@object          # @22
.L__unnamed_33:
	.asciz	", "
	.size	.L__unnamed_33, 3

	.type	__unnamed_13,@object            # @23
	.globl	__unnamed_13
	.p2align	3, 0x0
__unnamed_13:
	.quad	2                               # 0x2
	.quad	.L__unnamed_33
	.size	__unnamed_13, 16

	.type	.L__unnamed_34,@object          # @24
.L__unnamed_34:
	.asciz	"*"
	.size	.L__unnamed_34, 2

	.type	__unnamed_7,@object             # @25
	.globl	__unnamed_7
	.p2align	3, 0x0
__unnamed_7:
	.quad	1                               # 0x1
	.quad	.L__unnamed_34
	.size	__unnamed_7, 16

	.type	.L__unnamed_35,@object          # @26
.L__unnamed_35:
	.asciz	"[]"
	.size	.L__unnamed_35, 3

	.type	__unnamed_15,@object            # @27
	.globl	__unnamed_15
	.p2align	3, 0x0
__unnamed_15:
	.quad	2                               # 0x2
	.quad	.L__unnamed_35
	.size	__unnamed_15, 16

	.type	.L__unnamed_36,@object          # @28
.L__unnamed_36:
	.asciz	"<>"
	.size	.L__unnamed_36, 3

	.type	__unnamed_14,@object            # @29
	.globl	__unnamed_14
	.p2align	3, 0x0
__unnamed_14:
	.quad	2                               # 0x2
	.quad	.L__unnamed_36
	.size	__unnamed_14, 16

	.type	.L__unnamed_37,@object          # @30
.L__unnamed_37:
	.asciz	"true"
	.size	.L__unnamed_37, 5

	.type	__unnamed_20,@object            # @31
	.globl	__unnamed_20
	.p2align	3, 0x0
__unnamed_20:
	.quad	4                               # 0x4
	.quad	.L__unnamed_37
	.size	__unnamed_20, 16

	.type	.L__unnamed_38,@object          # @32
.L__unnamed_38:
	.asciz	"false"
	.size	.L__unnamed_38, 6

	.type	__unnamed_21,@object            # @33
	.globl	__unnamed_21
	.p2align	3, 0x0
__unnamed_21:
	.quad	5                               # 0x5
	.quad	.L__unnamed_38
	.size	__unnamed_21, 16

	.type	.L__unnamed_39,@object          # @34
.L__unnamed_39:
	.asciz	" { "
	.size	.L__unnamed_39, 4

	.type	__unnamed_16,@object            # @35
	.globl	__unnamed_16
	.p2align	3, 0x0
__unnamed_16:
	.quad	3                               # 0x3
	.quad	.L__unnamed_39
	.size	__unnamed_16, 16

	.type	.L__unnamed_40,@object          # @36
.L__unnamed_40:
	.asciz	" = "
	.size	.L__unnamed_40, 4

	.type	__unnamed_17,@object            # @37
	.globl	__unnamed_17
	.p2align	3, 0x0
__unnamed_17:
	.quad	3                               # 0x3
	.quad	.L__unnamed_40
	.size	__unnamed_17, 16

	.type	.L__unnamed_41,@object          # @38
.L__unnamed_41:
	.asciz	" }"
	.size	.L__unnamed_41, 3

	.type	__unnamed_19,@object            # @39
	.globl	__unnamed_19
	.p2align	3, 0x0
__unnamed_19:
	.quad	2                               # 0x2
	.quad	.L__unnamed_41
	.size	__unnamed_19, 16

	.type	.L__unnamed_42,@object          # @40
.L__unnamed_42:
	.asciz	", "
	.size	.L__unnamed_42, 3

	.type	__unnamed_18,@object            # @41
	.globl	__unnamed_18
	.p2align	3, 0x0
__unnamed_18:
	.quad	2                               # 0x2
	.quad	.L__unnamed_42
	.size	__unnamed_18, 16

	.section	".note.GNU-stack","",@progbits